; Function Attrs: mustprogress uwtable
define hidden noundef nonnull ptr @_ZN7testing8internal12UnitTestImpl21os_stack_trace_getterEv(ptr noundef nonnull align 8 captures(none) dereferenceable(401) %0) local_unnamed_addr #3 align 2 personality ptr @__gxx_personality_v0 {
  %2 = getelementptr inbounds nuw i8, ptr %0, i64 320
  %3 = load ptr, ptr %2, align 8
  %4 = icmp eq ptr %3, null
  br i1 %4, label %5, label %8

5:                                                ; preds = %1
  %6 = tail call noalias noundef nonnull dereferenceable(24) ptr @_Znwm(i64 noundef 24) #55
  store ptr getelementptr inbounds nuw inrange(-16, 32) (i8, ptr @_ZTVN7testing8internal18OsStackTraceGetterE, i64 16), ptr %6, align 8
  %7 = getelementptr inbounds nuw i8, ptr %6, i64 16
  store ptr null, ptr %7, align 8
  store ptr %6, ptr %2, align 8
  br label %8

8:                                                ; preds = %5, %1
  %9 = phi ptr [ %6, %5 ], [ %3, %1 ]
  ret ptr %9
}